target datalayout = "e-m:e-p270:32:32-p271:32:32-p272:64:64-i64:64-i128:128-f80:128-n8:16:32:64-S128"
target triple = "x86_64-pc-linux-gnu"

%"class.tbb::detail::r1::thread_dispatcher" = type { %"class.tbb::detail::r1::rml::tbb_client", %"class.tbb::detail::d1::rw_mutex", [3 x %"class.tbb::detail::r1::intrusive_list"], ptr, i8, ptr, %"struct.std::atomic.0", i32, i64, %"struct.std::atomic.2", ptr }
%"class.tbb::detail::r1::rml::tbb_client" = type { %"class.rml::client" }
%"class.rml::client" = type { %"class.rml::versioned_object" }
%"class.rml::versioned_object" = type { ptr }
%"class.tbb::detail::d1::rw_mutex" = type { %"struct.std::atomic" }
%"struct.std::atomic" = type { %"struct.std::__atomic_base" }
%"struct.std::__atomic_base" = type { i64 }
%"class.tbb::detail::r1::intrusive_list" = type { %"class.tbb::detail::r1::intrusive_list_base" }
%"class.tbb::detail::r1::intrusive_list_base" = type { %"struct.tbb::detail::d1::intrusive_list_node", i64 }
%"struct.tbb::detail::d1::intrusive_list_node" = type { ptr, ptr }
%"struct.std::atomic.0" = type { %"struct.std::__atomic_base.1" }
%"struct.std::__atomic_base.1" = type { i64 }
%"struct.std::atomic.2" = type { %"struct.std::__atomic_base.3" }
%"struct.std::__atomic_base.3" = type { i32 }

@__itt_thread_set_name_ptr__3_0 = external global ptr, align 8
@.str = private unnamed_addr constant [18 x i8] c"TBB Worker Thread\00", align 1

; Function Attrs: mustprogress nounwind sspstrong uwtable
define linkonce_odr noundef i32 @_ZNSt13__atomic_baseIjEppEv(ptr noundef nonnull align 4 dereferenceable(4) %0) #2 comdat align 2 {
  %2 = alloca ptr, align 8
  %3 = alloca i32, align 4
  %4 = alloca i32, align 4
  store ptr %0, ptr %2, align 8, !tbaa !119
  %5 = load ptr, ptr %2, align 8
  %6 = getelementptr inbounds nuw %"struct.std::__atomic_base.3", ptr %5, i32 0, i32 0
  store i32 1, ptr %3, align 4, !tbaa !10
  %7 = load i32, ptr %3, align 4
  %8 = atomicrmw add ptr %6, i32 %7 seq_cst, align 4
  %9 = add i32 %8, %7
  store i32 %9, ptr %4, align 4
  %10 = load i32, ptr %4, align 4, !tbaa !10
  ret i32 %10
}

; Function Attrs: mustprogress sspstrong uwtable
define noundef ptr @_ZN3tbb6detail2r117thread_dispatcher14create_one_jobEv(ptr noundef nonnull align 8 dereferenceable(152) %0) unnamed_addr #0 align 2 {
  %2 = alloca ptr, align 8
  %3 = alloca i16, align 2
  %4 = alloca ptr, align 8
  store ptr %0, ptr %2, align 8, !tbaa !3
  %5 = load ptr, ptr %2, align 8
  call void @llvm.lifetime.start.p0(i64 2, ptr %3) #11
  %6 = getelementptr inbounds nuw %"class.tbb::detail::r1::thread_dispatcher", ptr %5, i32 0, i32 9
  %7 = call noundef i32 @_ZNSt13__atomic_baseIjEppEv(ptr noundef nonnull align 4 dereferenceable(4) %6) #11
  %8 = trunc i32 %7 to i16
  store i16 %8, ptr %3, align 2, !tbaa !117
  %9 = load ptr, ptr @__itt_thread_set_name_ptr__3_0, align 8, !tbaa !118
  %10 = icmp ne ptr %9, null
  br i1 %10, label %12, label %11

11:                                               ; preds = %1
  br label %14

12:                                               ; preds = %1
  %13 = load ptr, ptr @__itt_thread_set_name_ptr__3_0, align 8, !tbaa !118
  call void %13(ptr noundef @.str)
  br label %14

14:                                               ; preds = %12, %11
  call void @llvm.lifetime.start.p0(i64 8, ptr %4) #11
  %15 = call noundef ptr @_ZN3tbb6detail2r122cache_aligned_allocateEm(i64 noundef 240)
  %16 = load i16, ptr %3, align 2, !tbaa !117
  call void @_ZN3tbb6detail2r111thread_dataC2Etb(ptr noundef nonnull align 8 dereferenceable(240) %15, i16 noundef zeroext %16, i1 noundef zeroext true)
  store ptr %15, ptr %4, align 8, !tbaa !89
  %17 = getelementptr inbounds nuw %"class.tbb::detail::r1::thread_dispatcher", ptr %5, i32 0, i32 5
  %18 = load ptr, ptr %17, align 8, !tbaa !116
  %19 = load ptr, ptr %4, align 8, !tbaa !89
  call void @_ZN3tbb6detail2r117threading_control15register_threadERNS1_11thread_dataE(ptr noundef nonnull align 8 dereferenceable(16) %18, ptr noundef nonnull align 8 dereferenceable(240) %19)
  %20 = load ptr, ptr %4, align 8, !tbaa !89
  call void @llvm.lifetime.end.p0(i64 8, ptr %4) #11
  call void @llvm.lifetime.end.p0(i64 2, ptr %3) #11
  ret ptr %20
}