; Function Attrs: mustprogress sspstrong uwtable
define noundef ptr @_ZN3tbb6detail2r117thread_dispatcher14create_one_jobEv(ptr noundef nonnull align 8 captures(none) dereferenceable(152) %0) unnamed_addr #0 align 2 {
  %2 = getelementptr inbounds nuw i8, ptr %0, i64 136
  %3 = atomicrmw add ptr %2, i32 1 seq_cst, align 4
  %4 = load ptr, ptr @__itt_thread_set_name_ptr__3_0, align 8, !tbaa !80
  %.not = icmp eq ptr %4, null
  br i1 %.not, label %6, label %5

5:                                                ; preds = %1
  tail call void %4(ptr noundef nonnull @.str)
  br label %6

6:                                                ; preds = %1, %5
  %7 = trunc i32 %3 to i16
  %8 = add i16 %7, 1
  %9 = tail call noundef ptr @_ZN3tbb6detail2r122cache_aligned_allocateEm(i64 noundef 240)
  tail call void @_ZN3tbb6detail2r111thread_dataC2Etb(ptr noundef nonnull align 8 dereferenceable(240) %9, i16 noundef zeroext %8, i1 noundef zeroext true)
  %10 = getelementptr inbounds nuw i8, ptr %0, i64 104
  %11 = load ptr, ptr %10, align 8, !tbaa !118
  tail call void @_ZN3tbb6detail2r117threading_control15register_threadERNS1_11thread_dataE(ptr noundef nonnull align 8 dereferenceable(16) %11, ptr noundef nonnull align 8 dereferenceable(240) %9)
  ret ptr %9
}